; Function Attrs: mustprogress uwtable
define hidden noundef ptr @_Z35pj_projection_specific_setup_stereaP8PJconsts(ptr noundef %0) local_unnamed_addr #0 {
  %2 = alloca double, align 8
  %3 = tail call noalias dereferenceable_or_null(40) ptr @calloc(i64 noundef 1, i64 noundef 40) #8
  %4 = icmp eq ptr %3, null
  br i1 %4, label %5, label %7

5:                                                ; preds = %1
  %6 = tail call noundef ptr @_Z21pj_default_destructorP8PJconstsi(ptr noundef %0, i32 noundef 4096)
  br label %31

7:                                                ; preds = %1
  %8 = getelementptr inbounds i8, ptr %0, i64 88
  store ptr %3, ptr %8, align 8
  %9 = getelementptr inbounds i8, ptr %0, i64 208
  %10 = load double, ptr %9, align 8
  %11 = getelementptr inbounds i8, ptr %0, i64 448
  %12 = load double, ptr %11, align 8
  %13 = call noundef ptr @_Z12pj_gauss_iniddPdS_(double noundef %10, double noundef %12, ptr noundef nonnull %3, ptr noundef nonnull %2)
  %14 = getelementptr inbounds i8, ptr %3, i64 32
  store ptr %13, ptr %14, align 8
  %15 = icmp eq ptr %13, null
  br i1 %15, label %16, label %18

16:                                               ; preds = %7
  %17 = call noundef ptr @_Z21pj_default_destructorP8PJconstsi(ptr noundef nonnull %0, i32 noundef 4096)
  br label %31

18:                                               ; preds = %7
  %19 = load double, ptr %3, align 8
  %20 = call double @sin(double noundef %19) #9
  %21 = getelementptr inbounds i8, ptr %3, i64 16
  store double %20, ptr %21, align 8
  %22 = load double, ptr %3, align 8
  %23 = call double @cos(double noundef %22) #9
  %24 = getelementptr inbounds i8, ptr %3, i64 8
  store double %23, ptr %24, align 8
  %25 = load double, ptr %2, align 8
  %26 = fmul double %25, 2.000000e+00
  %27 = getelementptr inbounds i8, ptr %3, i64 24
  store double %26, ptr %27, align 8
  %28 = getelementptr inbounds i8, ptr %0, i64 112
  store ptr @_ZL16sterea_e_inverse5PJ_XYP8PJconsts, ptr %28, align 8
  %29 = getelementptr inbounds i8, ptr %0, i64 104
  store ptr @_ZL16sterea_e_forward5PJ_LPP8PJconsts, ptr %29, align 8
  %30 = getelementptr inbounds i8, ptr %0, i64 152
  store ptr @_ZL10destructorP8PJconstsi, ptr %30, align 8
  br label %31

31:                                               ; preds = %18, %16, %5
  %.0 = phi ptr [ %6, %5 ], [ %17, %16 ], [ %0, %18 ]
  ret ptr %.0
}